; Function Attrs: nofree norecurse nosync nounwind memory(read, argmem: readwrite, inaccessiblemem: none) uwtable
define internal void @filter_row16_serial(ptr noundef readonly captures(none) %0, ptr noundef writeonly captures(none) %1, ptr noundef readonly captures(none) %2, i32 noundef %3, i32 noundef %4, i32 noundef %5, i32 noundef %6, i32 noundef %7, ptr readnone captures(none) %8) #6 {
  %10 = icmp sgt i32 %3, 0
  br i1 %10, label %.lr.ph96, label %._crit_edge97

.lr.ph96:                                         ; preds = %9
  %.05872 = add nsw i32 %4, -1
  %11 = icmp sgt i32 %4, 0
  %.081 = add nsw i32 %4, 1
  %12 = icmp slt i32 %.081, %5
  br i1 %12, label %.lr.ph96.split.us, label %.lr.ph96.split

.lr.ph96.split.us:                                ; preds = %.lr.ph96
  br i1 %11, label %.lr.ph.us.us.preheader, label %.lr.ph87.us.preheader

.lr.ph87.us.preheader:                            ; preds = %.lr.ph96.split.us
  %13 = sext i32 %4 to i64
  %14 = xor i32 %4, -1
  %15 = add i32 %5, %14
  %wide.trip.count131 = zext nneg i32 %3 to i64
  br label %.lr.ph87.us

.lr.ph.us.us.preheader:                           ; preds = %.lr.ph96.split.us
  %narrow = add nuw i32 %4, 1
  %16 = zext i32 %narrow to i64
  %17 = xor i32 %4, -1
  %18 = add i32 %5, %17
  %wide.trip.count141 = zext nneg i32 %3 to i64
  br label %.lr.ph.us.us

.lr.ph.us.us:                                     ; preds = %.lr.ph.us.us.preheader, %._crit_edge88.us.us
  %indvars.iv138 = phi i64 [ 0, %.lr.ph.us.us.preheader ], [ %indvars.iv.next139, %._crit_edge88.us.us ]
  %19 = getelementptr inbounds nuw i16, ptr %0, i64 %indvars.iv138
  %20 = load i16, ptr %19, align 2, !tbaa !86
  %21 = zext i16 %20 to i32
  br label %22

22:                                               ; preds = %.lr.ph.us.us, %34
  %.05876.us.us = phi i32 [ %.05872, %.lr.ph.us.us ], [ %.058.us.us, %34 ]
  %.06175.us.us = phi i32 [ 0, %.lr.ph.us.us ], [ %35, %34 ]
  %.06274.us.us = phi i32 [ %21, %.lr.ph.us.us ], [ %36, %34 ]
  %.06373.us.us = phi i32 [ 0, %.lr.ph.us.us ], [ %31, %34 ]
  %23 = zext nneg i32 %.05876.us.us to i64
  %24 = getelementptr inbounds nuw ptr, ptr %2, i64 %23
  %25 = load ptr, ptr %24, align 8, !tbaa !87
  %26 = getelementptr inbounds nuw i16, ptr %25, i64 %indvars.iv138
  %27 = load i16, ptr %26, align 2, !tbaa !86
  %28 = zext i16 %27 to i32
  %29 = sub nsw i32 %21, %28
  %30 = tail call i32 @llvm.abs.i32(i32 %29, i1 true)
  %31 = add i32 %30, %.06373.us.us
  %32 = icmp ugt i32 %30, %6
  %33 = icmp ugt i32 %31, %7
  %or.cond.us.us = select i1 %32, i1 true, i1 %33
  br i1 %or.cond.us.us, label %.lr.ph87.us.us, label %34

34:                                               ; preds = %22
  %35 = add nuw i32 %.06175.us.us, 1
  %36 = add i32 %.06274.us.us, %28
  %.058.us.us = add nsw i32 %.05876.us.us, -1
  %exitcond133.not = icmp eq i32 %35, %4
  br i1 %exitcond133.not, label %.lr.ph87.us.us, label %22, !llvm.loop !91

.lr.ph87.us.us:                                   ; preds = %34, %22
  %.062.lcssa.us.us = phi i32 [ %.06274.us.us, %22 ], [ %36, %34 ]
  %.061.lcssa.us.us = phi i32 [ %.06175.us.us, %22 ], [ %4, %34 ]
  br label %37

37:                                               ; preds = %48, %.lr.ph87.us.us
  %indvars.iv134 = phi i64 [ %indvars.iv.next135, %48 ], [ %16, %.lr.ph87.us.us ]
  %.06084.us.us = phi i32 [ %49, %48 ], [ 0, %.lr.ph87.us.us ]
  %.183.us.us = phi i32 [ %50, %48 ], [ %.062.lcssa.us.us, %.lr.ph87.us.us ]
  %.06482.us.us = phi i32 [ %45, %48 ], [ 0, %.lr.ph87.us.us ]
  %38 = getelementptr inbounds nuw ptr, ptr %2, i64 %indvars.iv134
  %39 = load ptr, ptr %38, align 8, !tbaa !87
  %40 = getelementptr inbounds nuw i16, ptr %39, i64 %indvars.iv138
  %41 = load i16, ptr %40, align 2, !tbaa !86
  %42 = zext i16 %41 to i32
  %43 = sub nsw i32 %21, %42
  %44 = tail call i32 @llvm.abs.i32(i32 %43, i1 true)
  %45 = add i32 %44, %.06482.us.us
  %46 = icmp ugt i32 %44, %6
  %47 = icmp ugt i32 %45, %7
  %or.cond71.us.us = select i1 %46, i1 true, i1 %47
  br i1 %or.cond71.us.us, label %._crit_edge88.us.us, label %48

48:                                               ; preds = %37
  %49 = add nuw i32 %.06084.us.us, 1
  %50 = add i32 %.183.us.us, %42
  %indvars.iv.next135 = add nuw nsw i64 %indvars.iv134, 1
  %exitcond137.not = icmp eq i32 %49, %18
  br i1 %exitcond137.not, label %._crit_edge88.us.us, label %37, !llvm.loop !92

._crit_edge88.us.us:                              ; preds = %48, %37
  %.1.lcssa.us.us = phi i32 [ %.183.us.us, %37 ], [ %50, %48 ]
  %.060.lcssa.us.us = phi i32 [ %.06084.us.us, %37 ], [ %18, %48 ]
  %51 = add nuw nsw i32 %.061.lcssa.us.us, 1
  %52 = add nuw nsw i32 %51, %.060.lcssa.us.us
  %53 = lshr i32 %52, 1
  %54 = add i32 %53, %.1.lcssa.us.us
  %55 = udiv i32 %54, %52
  %56 = trunc i32 %55 to i16
  %57 = getelementptr inbounds nuw i16, ptr %1, i64 %indvars.iv138
  store i16 %56, ptr %57, align 2, !tbaa !86
  %indvars.iv.next139 = add nuw nsw i64 %indvars.iv138, 1
  %exitcond142.not = icmp eq i64 %indvars.iv.next139, %wide.trip.count141
  br i1 %exitcond142.not, label %._crit_edge97, label %.lr.ph.us.us, !llvm.loop !93

.lr.ph87.us:                                      ; preds = %.lr.ph87.us.preheader, %._crit_edge88.us
  %indvars.iv128 = phi i64 [ 0, %.lr.ph87.us.preheader ], [ %indvars.iv.next129, %._crit_edge88.us ]
  %58 = getelementptr inbounds nuw i16, ptr %0, i64 %indvars.iv128
  %59 = load i16, ptr %58, align 2, !tbaa !86
  %60 = zext i16 %59 to i32
  br label %61

61:                                               ; preds = %.lr.ph87.us, %72
  %indvars.iv124.in = phi i64 [ %13, %.lr.ph87.us ], [ %indvars.iv124, %72 ]
  %.06084.us = phi i32 [ 0, %.lr.ph87.us ], [ %73, %72 ]
  %.183.us = phi i32 [ %60, %.lr.ph87.us ], [ %74, %72 ]
  %.06482.us = phi i32 [ 0, %.lr.ph87.us ], [ %69, %72 ]
  %indvars.iv124 = add nsw i64 %indvars.iv124.in, 1
  %62 = getelementptr inbounds ptr, ptr %2, i64 %indvars.iv124
  %63 = load ptr, ptr %62, align 8, !tbaa !87
  %64 = getelementptr inbounds nuw i16, ptr %63, i64 %indvars.iv128
  %65 = load i16, ptr %64, align 2, !tbaa !86
  %66 = zext i16 %65 to i32
  %67 = sub nsw i32 %60, %66
  %68 = tail call i32 @llvm.abs.i32(i32 %67, i1 true)
  %69 = add i32 %68, %.06482.us
  %70 = icmp ugt i32 %68, %6
  %71 = icmp ugt i32 %69, %7
  %or.cond71.us = select i1 %70, i1 true, i1 %71
  br i1 %or.cond71.us, label %._crit_edge88.us, label %72

72:                                               ; preds = %61
  %73 = add nuw i32 %.06084.us, 1
  %74 = add i32 %.183.us, %66
  %exitcond127.not = icmp eq i32 %73, %15
  br i1 %exitcond127.not, label %._crit_edge88.us, label %61, !llvm.loop !92

._crit_edge88.us:                                 ; preds = %72, %61
  %.1.lcssa.us = phi i32 [ %.183.us, %61 ], [ %74, %72 ]
  %.060.lcssa.us = phi i32 [ %.06084.us, %61 ], [ %15, %72 ]
  %75 = add nuw nsw i32 %.060.lcssa.us, 1
  %76 = lshr i32 %75, 1
  %77 = add i32 %76, %.1.lcssa.us
  %78 = udiv i32 %77, %75
  %79 = trunc i32 %78 to i16
  %80 = getelementptr inbounds nuw i16, ptr %1, i64 %indvars.iv128
  store i16 %79, ptr %80, align 2, !tbaa !86
  %indvars.iv.next129 = add nuw nsw i64 %indvars.iv128, 1
  %exitcond132.not = icmp eq i64 %indvars.iv.next129, %wide.trip.count131
  br i1 %exitcond132.not, label %._crit_edge97, label %.lr.ph87.us, !llvm.loop !93

.lr.ph96.split:                                   ; preds = %.lr.ph96
  %wide.trip.count122 = zext nneg i32 %3 to i64
  br i1 %11, label %.lr.ph.us107, label %.lr.ph96.split.split

.lr.ph.us107:                                     ; preds = %.lr.ph96.split, %._crit_edge.us108
  %indvars.iv119 = phi i64 [ %indvars.iv.next120, %._crit_edge.us108 ], [ 0, %.lr.ph96.split ]
  %81 = getelementptr inbounds nuw i16, ptr %0, i64 %indvars.iv119
  %82 = load i16, ptr %81, align 2, !tbaa !86
  %83 = zext i16 %82 to i32
  br label %84

84:                                               ; preds = %.lr.ph.us107, %96
  %.05876.us99 = phi i32 [ %.05872, %.lr.ph.us107 ], [ %.058.us104, %96 ]
  %.06175.us100 = phi i32 [ 0, %.lr.ph.us107 ], [ %.pre, %96 ]
  %.06274.us101 = phi i32 [ %83, %.lr.ph.us107 ], [ %97, %96 ]
  %.06373.us102 = phi i32 [ 0, %.lr.ph.us107 ], [ %93, %96 ]
  %85 = zext nneg i32 %.05876.us99 to i64
  %86 = getelementptr inbounds nuw ptr, ptr %2, i64 %85
  %87 = load ptr, ptr %86, align 8, !tbaa !87
  %88 = getelementptr inbounds nuw i16, ptr %87, i64 %indvars.iv119
  %89 = load i16, ptr %88, align 2, !tbaa !86
  %90 = zext i16 %89 to i32
  %91 = sub nsw i32 %83, %90
  %92 = tail call i32 @llvm.abs.i32(i32 %91, i1 true)
  %93 = add i32 %92, %.06373.us102
  %94 = icmp ugt i32 %92, %6
  %95 = icmp ugt i32 %93, %7
  %or.cond.us103 = select i1 %94, i1 true, i1 %95
  %.pre = add nuw i32 %.06175.us100, 1
  br i1 %or.cond.us103, label %._crit_edge.us108, label %96

96:                                               ; preds = %84
  %97 = add i32 %.06274.us101, %90
  %.058.us104 = add nsw i32 %.05876.us99, -1
  %exitcond118.not = icmp eq i32 %.pre, %4
  br i1 %exitcond118.not, label %._crit_edge.us108, label %84, !llvm.loop !91

._crit_edge.us108:                                ; preds = %96, %84
  %.pre-phi = phi i32 [ %.pre, %84 ], [ %.081, %96 ]
  %.062.lcssa.us105 = phi i32 [ %.06274.us101, %84 ], [ %97, %96 ]
  %98 = lshr i32 %.pre-phi, 1
  %99 = add i32 %98, %.062.lcssa.us105
  %100 = udiv i32 %99, %.pre-phi
  %101 = trunc i32 %100 to i16
  %102 = getelementptr inbounds nuw i16, ptr %1, i64 %indvars.iv119
  store i16 %101, ptr %102, align 2, !tbaa !86
  %indvars.iv.next120 = add nuw nsw i64 %indvars.iv119, 1
  %exitcond123.not = icmp eq i64 %indvars.iv.next120, %wide.trip.count122
  br i1 %exitcond123.not, label %._crit_edge97, label %.lr.ph.us107, !llvm.loop !93

._crit_edge97:                                    ; preds = %.lr.ph96.split.split, %._crit_edge.us108, %._crit_edge88.us, %._crit_edge88.us.us, %9
  ret void

.lr.ph96.split.split:                             ; preds = %.lr.ph96.split, %.lr.ph96.split.split
  %indvars.iv = phi i64 [ %indvars.iv.next, %.lr.ph96.split.split ], [ 0, %.lr.ph96.split ]
  %103 = getelementptr inbounds nuw i16, ptr %0, i64 %indvars.iv
  %104 = load i16, ptr %103, align 2, !tbaa !86
  %105 = getelementptr inbounds nuw i16, ptr %1, i64 %indvars.iv
  store i16 %104, ptr %105, align 2, !tbaa !86
  %indvars.iv.next = add nuw nsw i64 %indvars.iv, 1
  %exitcond.not = icmp eq i64 %indvars.iv.next, %wide.trip.count122
  br i1 %exitcond.not, label %._crit_edge97, label %.lr.ph96.split.split, !llvm.loop !93
}